target datalayout = "e-m:e-p270:32:32-p271:32:32-p272:64:64-i64:64-i128:128-f80:128-n8:16:32:64-S128"
target triple = "x86_64-unknown-linux-gnu"

%"struct.std::atomic" = type { %"struct.std::__atomic_base" }
%"struct.std::__atomic_base" = type { i8 }
%"class.grpc_core::Call" = type { ptr, %"class.grpc_core::RefCountedPtr", ptr, %"struct.std::atomic.0", ptr, %"class.grpc_core::Timestamp", i8, i8, i32, %"class.grpc_core::CompressionAlgorithmSet", i32, %"class.absl::lts_20230802::Mutex", %"class.grpc_core::Slice", double }
%"class.grpc_core::RefCountedPtr" = type { ptr }
%"struct.std::atomic.0" = type { %"struct.std::__atomic_base.1" }
%"struct.std::__atomic_base.1" = type { ptr }
%"class.grpc_core::Timestamp" = type { i64 }
%"class.grpc_core::CompressionAlgorithmSet" = type { %"class.grpc_core::BitSet" }
%"class.grpc_core::BitSet" = type { [1 x i8] }
%"class.absl::lts_20230802::Mutex" = type { %"struct.std::atomic.2" }
%"struct.std::atomic.2" = type { %"struct.std::__atomic_base.3" }
%"struct.std::__atomic_base.3" = type { i64 }
%"class.grpc_core::Slice" = type { %"class.grpc_core::slice_detail::BaseSlice" }
%"class.grpc_core::slice_detail::BaseSlice" = type { %struct.grpc_slice }
%struct.grpc_slice = type { ptr, %"union.grpc_slice::grpc_slice_data" }
%"union.grpc_slice::grpc_slice_data" = type { %"struct.grpc_slice::grpc_slice_data::grpc_slice_refcounted", [8 x i8] }
%"struct.grpc_slice::grpc_slice_data::grpc_slice_refcounted" = type { i64, ptr }
%"class.absl::lts_20230802::Status" = type { i64 }
%"struct.std::atomic.4" = type { %"struct.std::__atomic_base.5" }
%"struct.std::__atomic_base.5" = type { i64 }
%struct.grpc_transport_stream_op_batch_payload = type { %struct.anon.122, %struct.anon.123, %struct.anon.124, %struct.anon.125, %struct.anon.126, %struct.anon.127, %struct.anon.128, ptr }
%struct.anon.122 = type { ptr }
%struct.anon.123 = type { ptr, ptr }
%struct.anon.124 = type <{ ptr, i32, i8, [3 x i8] }>
%struct.anon.125 = type { ptr, ptr, ptr }
%struct.anon.126 = type { ptr, ptr, ptr, ptr }
%struct.anon.127 = type { ptr, ptr, ptr }
%struct.anon.128 = type <{ %"class.absl::lts_20230802::Status", i8, [7 x i8] }>
%struct.grpc_call_stats = type { %struct.grpc_transport_stream_stats, %struct.gpr_timespec }
%struct.grpc_transport_stream_stats = type { %struct.grpc_transport_one_way_stats, %struct.grpc_transport_one_way_stats, %struct.gpr_timespec }
%struct.grpc_transport_one_way_stats = type { i64, i64, i64 }
%struct.gpr_timespec = type { i64, i32, i32 }
%struct.grpc_call_context_element = type { ptr, ptr }
%"class.grpc_core::Orphanable" = type { ptr }
%struct.grpc_cq_completion = type { %"class.grpc_core::ManualConstructor", ptr, ptr, ptr, i64 }
%"class.grpc_core::ManualConstructor" = type { [8 x i8] }
%"class.grpc_core::PromiseBasedCall" = type { %"class.grpc_core::Call", %"class.grpc_core::Party", %"class.grpc_event_engine::experimental::EventEngine::Closure", %"class.grpc_core::CallContext", %"struct.std::atomic.4", [8 x %struct.grpc_call_context_element], ptr, [6 x %"union.grpc_core::PromiseBasedCall::CompletionInfo"], %struct.grpc_call_stats, %"class.grpc_core::Slice", i32, %"class.grpc_core::CallFinalization", %"class.absl::lts_20230802::Mutex", %"class.grpc_core::Timestamp", %"struct.grpc_event_engine::experimental::EventEngine::TaskHandle", %"class.grpc_core::ExternallyObservableLatch", %"struct.std::atomic.274", %"struct.std::atomic", %"class.grpc_core::IntraActivityWaiter", ptr, %struct.grpc_transport_stream_op_batch_payload }
%"class.grpc_core::Party" = type { %"class.grpc_core::Activity", %"class.grpc_core::Wakeable", %"class.grpc_core::PartySyncUsingAtomics", ptr, i8, [16 x %"struct.std::atomic.270"] }
%"class.grpc_core::Activity" = type { %"class.grpc_core::Orphanable" }
%"class.grpc_core::Wakeable" = type { ptr }
%"class.grpc_core::PartySyncUsingAtomics" = type { %"struct.std::atomic.4" }
%"struct.std::atomic.270" = type { %"struct.std::__atomic_base.271" }
%"struct.std::__atomic_base.271" = type { ptr }
%"class.grpc_event_engine::experimental::EventEngine::Closure" = type { ptr }
%"class.grpc_core::CallContext" = type <{ %struct.grpc_call_stats, ptr, double, i8, [7 x i8] }>
%"union.grpc_core::PromiseBasedCall::CompletionInfo" = type { %struct.grpc_cq_completion }
%"class.grpc_core::CallFinalization" = type { ptr }
%"struct.grpc_event_engine::experimental::EventEngine::TaskHandle" = type { [2 x i64] }
%"class.grpc_core::ExternallyObservableLatch" = type { %"struct.std::atomic", %"class.grpc_core::IntraActivityWaiter" }
%"struct.std::atomic.274" = type { %"struct.std::__atomic_base.275" }
%"struct.std::__atomic_base.275" = type { i8 }
%"class.grpc_core::IntraActivityWaiter" = type { i16 }
%"class.grpc_core::PromiseBasedCall::Completion" = type { i8 }
%"struct.grpc_core::PromiseBasedCall::CompletionInfo::Pending" = type { %"struct.std::atomic.272", i8, i8, ptr }
%"struct.std::atomic.272" = type { %"struct.std::__atomic_base.273" }
%"struct.std::__atomic_base.273" = type { i32 }

; Function Attrs: mustprogress nounwind uwtable
define linkonce_odr void @_ZN9grpc_core16PromiseBasedCall14CompletionInfo7Pending16MarkForceSuccessEv(ptr noundef nonnull align 8 dereferenceable(16) %this) #5 comdat align 2 {
entry:
  %this.addr.i = alloca ptr, align 8
  %__i.addr.i = alloca i32, align 4
  %__m.addr.i = alloca i32, align 4
  %.atomictmp.i = alloca i32, align 4
  %atomic-temp.i = alloca i32, align 4
  %this.addr = alloca ptr, align 8
  store ptr %this, ptr %this.addr, align 8
  %this1 = load ptr, ptr %this.addr, align 8
  %state = getelementptr inbounds %"struct.grpc_core::PromiseBasedCall::CompletionInfo::Pending", ptr %this1, i32 0, i32 0
  store ptr %state, ptr %this.addr.i, align 8
  store i32 1073741824, ptr %__i.addr.i, align 4
  store i32 0, ptr %__m.addr.i, align 4
  %this1.i = load ptr, ptr %this.addr.i, align 8
  %0 = load i32, ptr %__m.addr.i, align 4
  %1 = load i32, ptr %__i.addr.i, align 4
  store i32 %1, ptr %.atomictmp.i, align 4
  switch i32 %0, label %monotonic.i [
    i32 1, label %acquire.i
    i32 2, label %acquire.i
    i32 3, label %release.i
    i32 4, label %acqrel.i
    i32 5, label %seqcst.i
  ]

monotonic.i:                                      ; preds = %entry
  %2 = load i32, ptr %.atomictmp.i, align 4
  %3 = atomicrmw or ptr %this1.i, i32 %2 monotonic, align 4
  store i32 %3, ptr %atomic-temp.i, align 4
  br label %_ZNSt13__atomic_baseIjE8fetch_orEjSt12memory_order.exit

acquire.i:                                        ; preds = %entry, %entry
  %4 = load i32, ptr %.atomictmp.i, align 4
  %5 = atomicrmw or ptr %this1.i, i32 %4 acquire, align 4
  store i32 %5, ptr %atomic-temp.i, align 4
  br label %_ZNSt13__atomic_baseIjE8fetch_orEjSt12memory_order.exit

release.i:                                        ; preds = %entry
  %6 = load i32, ptr %.atomictmp.i, align 4
  %7 = atomicrmw or ptr %this1.i, i32 %6 release, align 4
  store i32 %7, ptr %atomic-temp.i, align 4
  br label %_ZNSt13__atomic_baseIjE8fetch_orEjSt12memory_order.exit

acqrel.i:                                         ; preds = %entry
  %8 = load i32, ptr %.atomictmp.i, align 4
  %9 = atomicrmw or ptr %this1.i, i32 %8 acq_rel, align 4
  store i32 %9, ptr %atomic-temp.i, align 4
  br label %_ZNSt13__atomic_baseIjE8fetch_orEjSt12memory_order.exit

seqcst.i:                                         ; preds = %entry
  %10 = load i32, ptr %.atomictmp.i, align 4
  %11 = atomicrmw or ptr %this1.i, i32 %10 seq_cst, align 4
  store i32 %11, ptr %atomic-temp.i, align 4
  br label %_ZNSt13__atomic_baseIjE8fetch_orEjSt12memory_order.exit

_ZNSt13__atomic_baseIjE8fetch_orEjSt12memory_order.exit: ; preds = %seqcst.i, %acqrel.i, %release.i, %acquire.i, %monotonic.i
  ret void
}

; Function Attrs: mustprogress nounwind uwtable
define linkonce_odr noundef zeroext i8 @_ZNK9grpc_core16PromiseBasedCall10Completion5indexEv(ptr noundef nonnull align 1 dereferenceable(1) %this) #5 comdat align 2 {
entry:
  %this.addr = alloca ptr, align 8
  store ptr %this, ptr %this.addr, align 8
  %this1 = load ptr, ptr %this.addr, align 8
  %index_ = getelementptr inbounds %"class.grpc_core::PromiseBasedCall::Completion", ptr %this1, i32 0, i32 0
  %0 = load i8, ptr %index_, align 1
  ret i8 %0
}

; Function Attrs: mustprogress uwtable
define void @_ZN9grpc_core16PromiseBasedCall22ForceCompletionSuccessERKNS0_10CompletionE(ptr noundef nonnull align 8 dereferenceable(1096) %this, ptr noundef nonnull align 1 dereferenceable(1) %completion) #4 align 2 {
entry:
  %this.addr = alloca ptr, align 8
  %completion.addr = alloca ptr, align 8
  store ptr %this, ptr %this.addr, align 8
  store ptr %completion, ptr %completion.addr, align 8
  %this1 = load ptr, ptr %this.addr, align 8
  %completion_info_ = getelementptr inbounds %"class.grpc_core::PromiseBasedCall", ptr %this1, i32 0, i32 7
  %0 = load ptr, ptr %completion.addr, align 8
  %call = call noundef zeroext i8 @_ZNK9grpc_core16PromiseBasedCall10Completion5indexEv(ptr noundef nonnull align 1 dereferenceable(1) %0)
  %idxprom = zext i8 %call to i64
  %arrayidx = getelementptr inbounds [6 x %"union.grpc_core::PromiseBasedCall::CompletionInfo"], ptr %completion_info_, i64 0, i64 %idxprom
  call void @_ZN9grpc_core16PromiseBasedCall14CompletionInfo7Pending16MarkForceSuccessEv(ptr noundef nonnull align 8 dereferenceable(16) %arrayidx)
  ret void
}