; Function Attrs: mustprogress nofree norecurse nounwind willreturn memory(argmem: readwrite) uwtable
define void @_ZN9grpc_core16PromiseBasedCall22ForceCompletionSuccessERKNS0_10CompletionE(ptr nocapture noundef nonnull align 8 dereferenceable(1096) %this, ptr nocapture noundef nonnull readonly align 1 dereferenceable(1) %completion) local_unnamed_addr #4 align 2 {
entry:
  %completion_info_ = getelementptr inbounds i8, ptr %this, i64 536
  %0 = load i8, ptr %completion, align 1
  %idxprom = zext i8 %0 to i64
  %arrayidx = getelementptr inbounds [6 x %"union.grpc_core::PromiseBasedCall::CompletionInfo"], ptr %completion_info_, i64 0, i64 %idxprom
  %1 = atomicrmw or ptr %arrayidx, i32 1073741824 monotonic, align 4
  ret void
}